; Function Attrs: mustprogress uwtable
define hidden noundef ptr @_ZN5osgeo4proj20pj_find_generic_gridERKSt6vectorISt10unique_ptrINS0_19GenericShiftGridSetESt14default_deleteIS3_EESaIS6_EERK5PJ_LPRPS3_(ptr noundef nonnull readonly align 8 captures(none) dereferenceable(24) %0, ptr noundef nonnull readonly align 8 captures(none) dereferenceable(16) %1, ptr noundef nonnull writeonly align 8 captures(none) dereferenceable(8) %2) local_unnamed_addr #2 {
  %4 = load ptr, ptr %0, align 8, !tbaa !514
  %5 = getelementptr inbounds nuw i8, ptr %0, i64 8
  %6 = load ptr, ptr %5, align 8, !tbaa !514
  %.not2224 = icmp eq ptr %4, %6
  br i1 %.not2224, label %.loopexit, label %.lr.ph

.lr.ph:                                           ; preds = %3
  %7 = getelementptr inbounds nuw i8, ptr %1, i64 8
  br label %8

8:                                                ; preds = %.lr.ph, %15
  %.sroa.017.025 = phi ptr [ %4, %.lr.ph ], [ %16, %15 ]
  %9 = load ptr, ptr %.sroa.017.025, align 8, !tbaa !431
  %10 = load double, ptr %1, align 8, !tbaa !513
  %11 = load double, ptr %7, align 8, !tbaa !510
  %12 = tail call noundef ptr @_ZNK5osgeo4proj19GenericShiftGridSet6gridAtEdd(ptr noundef nonnull align 8 dereferenceable(96) %9, double noundef %10, double noundef %11)
  %.not = icmp eq ptr %12, null
  br i1 %.not, label %15, label %13

13:                                               ; preds = %8
  %14 = load ptr, ptr %.sroa.017.025, align 8, !tbaa !431
  store ptr %14, ptr %2, align 8, !tbaa !431
  br label %.loopexit

15:                                               ; preds = %8
  %16 = getelementptr inbounds nuw i8, ptr %.sroa.017.025, i64 8
  %.not22 = icmp eq ptr %16, %6
  br i1 %.not22, label %.loopexit, label %8

.loopexit:                                        ; preds = %15, %3, %13
  %spec.select = phi ptr [ %12, %13 ], [ null, %3 ], [ null, %15 ]
  ret ptr %spec.select
}